target datalayout = "e-m:e-p270:32:32-p271:32:32-p272:64:64-i64:64-i128:128-f80:128-n8:16:32:64-S128"
target triple = "x86_64-pc-linux-gnu"

%struct._object = type { %union.anon, ptr }
%union.anon = type { i64 }
%struct.PyDictObject = type { %struct._object, i64, i64, ptr, ptr }
%struct.defdictobject = type { %struct.PyDictObject, ptr }

@_Py_NoneStruct = external global %struct._object, align 8

; Function Attrs: inlinehint nounwind uwtable
define internal ptr @_Py_TYPE(ptr noundef %0) #3 {
  %2 = alloca ptr, align 8
  store ptr %0, ptr %2, align 8, !tbaa !4
  %3 = load ptr, ptr %2, align 8, !tbaa !4
  %4 = getelementptr inbounds nuw %struct._object, ptr %3, i32 0, i32 1
  %5 = load ptr, ptr %4, align 8, !tbaa !26
  ret ptr %5
}

; Function Attrs: inlinehint nounwind uwtable
define internal ptr @new_defdict(ptr noundef %0, ptr noundef %1) #3 {
  %3 = alloca ptr, align 8
  %4 = alloca ptr, align 8
  store ptr %0, ptr %3, align 8, !tbaa !9
  store ptr %1, ptr %4, align 8, !tbaa !4
  %5 = load ptr, ptr %3, align 8, !tbaa !9
  %6 = call ptr @_Py_TYPE(ptr noundef %5)
  %7 = load ptr, ptr %3, align 8, !tbaa !9
  %8 = getelementptr inbounds nuw %struct.defdictobject, ptr %7, i32 0, i32 1
  %9 = load ptr, ptr %8, align 8, !tbaa !104
  %10 = icmp ne ptr %9, null
  br i1 %10, label %11, label %15

11:                                               ; preds = %2
  %12 = load ptr, ptr %3, align 8, !tbaa !9
  %13 = getelementptr inbounds nuw %struct.defdictobject, ptr %12, i32 0, i32 1
  %14 = load ptr, ptr %13, align 8, !tbaa !104
  br label %16

15:                                               ; preds = %2
  br label %16

16:                                               ; preds = %15, %11
  %17 = phi ptr [ %14, %11 ], [ @_Py_NoneStruct, %15 ]
  %18 = load ptr, ptr %4, align 8, !tbaa !4
  %19 = call ptr (ptr, ...) @PyObject_CallFunctionObjArgs(ptr noundef %6, ptr noundef %17, ptr noundef %18, ptr noundef null)
  ret ptr %19
}

; Function Attrs: nounwind uwtable
define internal ptr @defdict_copy(ptr noundef %0, ptr noundef %1) #0 {
  %3 = alloca ptr, align 8
  %4 = alloca ptr, align 8
  store ptr %0, ptr %3, align 8, !tbaa !9
  store ptr %1, ptr %4, align 8, !tbaa !4
  %5 = load ptr, ptr %3, align 8, !tbaa !9
  %6 = load ptr, ptr %3, align 8, !tbaa !9
  %7 = call ptr @new_defdict(ptr noundef %5, ptr noundef %6)
  ret ptr %7
}