; Function Attrs: nounwind uwtable
define internal ptr @defdict_copy(ptr noundef %0, ptr readnone captures(none) %1) #0 {
  %3 = getelementptr i8, ptr %0, i64 8
  %.val = load ptr, ptr %3, align 8, !tbaa !22
  %4 = getelementptr i8, ptr %0, i64 48
  %.val2 = load ptr, ptr %4, align 8, !tbaa !97
  %.not.i = icmp eq ptr %.val2, null
  %spec.select.i = select i1 %.not.i, ptr @_Py_NoneStruct, ptr %.val2
  %5 = tail call ptr (ptr, ...) @PyObject_CallFunctionObjArgs(ptr noundef %.val, ptr noundef nonnull %spec.select.i, ptr noundef %0, ptr noundef null) #9
  ret ptr %5
}